target datalayout = "e-m:e-p270:32:32-p271:32:32-p272:64:64-i64:64-i128:128-f80:128-n8:16:32:64-S128"
target triple = "x86_64-unknown-linux-gnu"

%class.params_ref = type { ptr }
%"class.euf::completion" = type <{ %class.dependent_expr_simplifier, %"class.euf::egraph", ptr, ptr, %class.ptr_vector.9, %class.ptr_vector.7, %class.ptr_vector.7, %class.ptr_vector.7, %class.ref_vector, %class.ref_vector, %class.ref_vector.32, i32, [4 x i8], %class.svector.5, %class.th_rewriter, %"struct.euf::completion::stats", i8, [3 x i8] }>
%class.dependent_expr_simplifier = type { ptr, ptr, ptr, ptr }
%"class.euf::egraph" = type { ptr, %class.svector, %"class.euf::etable", %class.region, %class.scoped_ptr_vector, %class.svector.3, %class.svector.5, %class.ptr_vector.7, ptr, ptr, i32, %class.tmp_app, %class.ptr_vector.7, %class.ref_vector, %class.ref_vector.11, %class.vector.16, %class.ptr_vector.7, i32, i8, ptr, ptr, %"class.euf::justification", i32, %class.svector.18, %class.svector.20, %class.ptr_vector.7, %"struct.euf::egraph::stats", i8, i8, i64, %"class.std::vector", %"class.std::function", %"class.std::function.22", %"class.std::function.24", %"class.std::function.26", %"class.std::function.29" }
%class.svector = type { %class.vector }
%class.vector = type { ptr }
%"class.euf::etable" = type { ptr, i8, %class.ptr_vector, %class.map }
%class.ptr_vector = type { %class.vector.0 }
%class.vector.0 = type { ptr }
%class.map = type { %class.table2map }
%class.table2map = type { %class.core_hashtable }
%class.core_hashtable = type <{ ptr, i32, i32, i32, [4 x i8] }>
%class.region = type { ptr, ptr, ptr, ptr, ptr }
%class.scoped_ptr_vector = type { %class.ptr_vector.1 }
%class.ptr_vector.1 = type { %class.vector.2 }
%class.vector.2 = type { ptr }
%class.svector.3 = type { %class.vector.4 }
%class.vector.4 = type { ptr }
%class.tmp_app = type { i32, ptr }
%class.ref_vector.11 = type { %class.ref_vector_core.12 }
%class.ref_vector_core.12 = type { %class.ref_manager_wrapper.13, %class.ptr_vector.14 }
%class.ref_manager_wrapper.13 = type { ptr }
%class.ptr_vector.14 = type { %class.vector.15 }
%class.vector.15 = type { ptr }
%class.vector.16 = type { ptr }
%"class.euf::justification" = type { i32, %union.anon, %union.anon.17 }
%union.anon = type { ptr }
%union.anon.17 = type { ptr }
%class.svector.18 = type { %class.vector.19 }
%class.vector.19 = type { ptr }
%class.svector.20 = type { %class.vector.21 }
%class.vector.21 = type { ptr }
%"struct.euf::egraph::stats" = type { i32, i32, i32, i32, i32, i32 }
%"class.std::vector" = type { %"struct.std::_Vector_base" }
%"struct.std::_Vector_base" = type { %"struct.std::_Vector_base<std::function<void (euf::enode *, euf::enode *)>, std::allocator<std::function<void (euf::enode *, euf::enode *)>>>::_Vector_impl" }
%"struct.std::_Vector_base<std::function<void (euf::enode *, euf::enode *)>, std::allocator<std::function<void (euf::enode *, euf::enode *)>>>::_Vector_impl" = type { %"struct.std::_Vector_base<std::function<void (euf::enode *, euf::enode *)>, std::allocator<std::function<void (euf::enode *, euf::enode *)>>>::_Vector_impl_data" }
%"struct.std::_Vector_base<std::function<void (euf::enode *, euf::enode *)>, std::allocator<std::function<void (euf::enode *, euf::enode *)>>>::_Vector_impl_data" = type { ptr, ptr, ptr }
%"class.std::function" = type { %"class.std::_Function_base", ptr }
%"class.std::_Function_base" = type { %"union.std::_Any_data", ptr }
%"union.std::_Any_data" = type { %"union.std::_Nocopy_types" }
%"union.std::_Nocopy_types" = type { { i64, i64 } }
%"class.std::function.22" = type { %"class.std::_Function_base", ptr }
%"class.std::function.24" = type { %"class.std::_Function_base", ptr }
%"class.std::function.26" = type { %"class.std::_Function_base", ptr }
%"class.std::function.29" = type { %"class.std::_Function_base", ptr }
%class.ptr_vector.9 = type { %class.vector.10 }
%class.vector.10 = type { ptr }
%class.ptr_vector.7 = type { %class.vector.8 }
%class.vector.8 = type { ptr }
%class.ref_vector = type { %class.ref_vector_core }
%class.ref_vector_core = type { %class.ref_manager_wrapper, %class.ptr_vector.9 }
%class.ref_manager_wrapper = type { ptr }
%class.ref_vector.32 = type { %class.ref_vector_core.33 }
%class.ref_vector_core.33 = type { %class.ref_manager_wrapper.34, %class.ptr_vector.35 }
%class.ref_manager_wrapper.34 = type { ptr }
%class.ptr_vector.35 = type { %class.vector.36 }
%class.vector.36 = type { ptr }
%class.svector.5 = type { %class.vector.6 }
%class.vector.6 = type { ptr }
%class.th_rewriter = type { ptr, %class.params_ref }
%"struct.euf::completion::stats" = type { i32 }
%"class.euf::enode" = type { ptr, i8, i8, i8, i8, i8, i8, i8, i8, i8, i32, i32, i32, i32, i32, i32, %class.ptr_vector.7, ptr, ptr, ptr, ptr, %class.id_var_list, %"class.euf::justification", %"class.euf::justification", i32, i8, %class.approx_set, %class.approx_set, [0 x ptr] }
%class.id_var_list = type { i32, ptr }
%class.approx_set = type { %class.approx_set_tpl }
%class.approx_set_tpl = type { i64 }
%class.ast = type { i32, i24, i32, i32 }

; Function Attrs: mustprogress nounwind uwtable
define linkonce_odr hidden noundef nonnull align 8 dereferenceable(8) ptr @_ZNK6vectorIP4exprLb0EjEixEj(ptr noundef nonnull align 8 dereferenceable(8) %this, i32 noundef %idx) #4 comdat align 2 {
entry:
  %this.addr = alloca ptr, align 8
  %idx.addr = alloca i32, align 4
  store ptr %this, ptr %this.addr, align 8
  store i32 %idx, ptr %idx.addr, align 4
  %this1 = load ptr, ptr %this.addr, align 8
  %m_data = getelementptr inbounds %class.vector.10, ptr %this1, i32 0, i32 0
  %0 = load ptr, ptr %m_data, align 8
  %1 = load i32, ptr %idx.addr, align 4
  %idxprom = zext i32 %1 to i64
  %arrayidx = getelementptr inbounds ptr, ptr %0, i64 %idxprom
  ret ptr %arrayidx
}

; Function Attrs: mustprogress nounwind uwtable
define linkonce_odr hidden noundef i32 @_ZNK6vectorIjLb0EjE4sizeEv(ptr noundef nonnull align 8 dereferenceable(8) %this) #4 comdat align 2 {
entry:
  %retval = alloca i32, align 4
  %this.addr = alloca ptr, align 8
  store ptr %this, ptr %this.addr, align 8
  %this1 = load ptr, ptr %this.addr, align 8
  %m_data = getelementptr inbounds %class.vector.6, ptr %this1, i32 0, i32 0
  %0 = load ptr, ptr %m_data, align 8
  %cmp = icmp eq ptr %0, null
  br i1 %cmp, label %if.then, label %if.end

if.then:                                          ; preds = %entry
  store i32 0, ptr %retval, align 4
  br label %return

if.end:                                           ; preds = %entry
  %m_data2 = getelementptr inbounds %class.vector.6, ptr %this1, i32 0, i32 0
  %1 = load ptr, ptr %m_data2, align 8
  %arrayidx = getelementptr inbounds i32, ptr %1, i64 -1
  %2 = load i32, ptr %arrayidx, align 4
  store i32 %2, ptr %retval, align 4
  br label %return

return:                                           ; preds = %if.end, %if.then
  %3 = load i32, ptr %retval, align 4
  ret i32 %3
}

; Function Attrs: mustprogress nounwind uwtable
define linkonce_odr hidden noundef i32 @_ZNK3ast6get_idEv(ptr noundef nonnull align 4 dereferenceable(16) %this) #4 comdat align 2 {
entry:
  %this.addr = alloca ptr, align 8
  store ptr %this, ptr %this.addr, align 8
  %this1 = load ptr, ptr %this.addr, align 8
  %m_id = getelementptr inbounds %class.ast, ptr %this1, i32 0, i32 0
  %0 = load i32, ptr %m_id, align 4
  ret i32 %0
}

; Function Attrs: mustprogress uwtable
define linkonce_odr hidden noundef ptr @_ZNK15ref_vector_coreI4expr19ref_manager_wrapperIS0_11ast_managerEE3getEj(ptr noundef nonnull align 8 dereferenceable(16) %this, i32 noundef %idx) #5 comdat align 2 {
entry:
  %this.addr = alloca ptr, align 8
  %idx.addr = alloca i32, align 4
  store ptr %this, ptr %this.addr, align 8
  store i32 %idx, ptr %idx.addr, align 4
  %this1 = load ptr, ptr %this.addr, align 8
  %m_nodes = getelementptr inbounds %class.ref_vector_core, ptr %this1, i32 0, i32 1
  %0 = load i32, ptr %idx.addr, align 4
  %call = call noundef nonnull align 8 dereferenceable(8) ptr @_ZNK6vectorIP4exprLb0EjEixEj(ptr noundef nonnull align 8 dereferenceable(8) %m_nodes, i32 noundef %0)
  %1 = load ptr, ptr %call, align 8
  ret ptr %1
}

; Function Attrs: mustprogress nounwind uwtable
define linkonce_odr hidden noundef nonnull align 4 dereferenceable(4) ptr @_ZNK6vectorIjLb0EjE3getEjRKj(ptr noundef nonnull align 8 dereferenceable(8) %this, i32 noundef %idx, ptr noundef nonnull align 4 dereferenceable(4) %d) #4 comdat align 2 {
entry:
  %retval = alloca ptr, align 8
  %this.addr = alloca ptr, align 8
  %idx.addr = alloca i32, align 4
  %d.addr = alloca ptr, align 8
  store ptr %this, ptr %this.addr, align 8
  store i32 %idx, ptr %idx.addr, align 4
  store ptr %d, ptr %d.addr, align 8
  %this1 = load ptr, ptr %this.addr, align 8
  %0 = load i32, ptr %idx.addr, align 4
  %call = call noundef i32 @_ZNK6vectorIjLb0EjE4sizeEv(ptr noundef nonnull align 8 dereferenceable(8) %this1)
  %cmp = icmp uge i32 %0, %call
  br i1 %cmp, label %if.then, label %if.end

if.then:                                          ; preds = %entry
  %1 = load ptr, ptr %d.addr, align 8
  store ptr %1, ptr %retval, align 8
  br label %return

if.end:                                           ; preds = %entry
  %m_data = getelementptr inbounds %class.vector.6, ptr %this1, i32 0, i32 0
  %2 = load ptr, ptr %m_data, align 8
  %3 = load i32, ptr %idx.addr, align 4
  %idxprom = zext i32 %3 to i64
  %arrayidx = getelementptr inbounds i32, ptr %2, i64 %idxprom
  store ptr %arrayidx, ptr %retval, align 8
  br label %return

return:                                           ; preds = %if.end, %if.then
  %4 = load ptr, ptr %retval, align 8
  ret ptr %4
}

; Function Attrs: mustprogress nounwind uwtable
define linkonce_odr hidden noundef i32 @_ZNK3euf5enode6get_idEv(ptr noundef nonnull align 8 dereferenceable(176) %this) #4 comdat align 2 {
entry:
  %this.addr = alloca ptr, align 8
  store ptr %this, ptr %this.addr, align 8
  %this1 = load ptr, ptr %this.addr, align 8
  %m_expr = getelementptr inbounds %"class.euf::enode", ptr %this1, i32 0, i32 0
  %0 = load ptr, ptr %m_expr, align 8
  %call = call noundef i32 @_ZNK3ast6get_idEv(ptr noundef nonnull align 4 dereferenceable(16) %0)
  ret i32 %call
}

; Function Attrs: mustprogress uwtable
define hidden noundef ptr @_ZN3euf10completion13get_canonicalEPNS_5enodeE(ptr noundef nonnull align 8 dereferenceable(701) %this, ptr noundef %n) #5 align 2 {
entry:
  %retval = alloca ptr, align 8
  %this.addr = alloca ptr, align 8
  %n.addr = alloca ptr, align 8
  %ref.tmp = alloca i32, align 4
  store ptr %this, ptr %this.addr, align 8
  store ptr %n, ptr %n.addr, align 8
  %this1 = load ptr, ptr %this.addr, align 8
  %m_epochs = getelementptr inbounds %"class.euf::completion", ptr %this1, i32 0, i32 13
  %0 = load ptr, ptr %n.addr, align 8
  %call = call noundef i32 @_ZNK3euf5enode6get_idEv(ptr noundef nonnull align 8 dereferenceable(176) %0)
  store i32 0, ptr %ref.tmp, align 4
  %call2 = call noundef nonnull align 4 dereferenceable(4) ptr @_ZNK6vectorIjLb0EjE3getEjRKj(ptr noundef nonnull align 8 dereferenceable(8) %m_epochs, i32 noundef %call, ptr noundef nonnull align 4 dereferenceable(4) %ref.tmp)
  %1 = load i32, ptr %call2, align 4
  %m_epoch = getelementptr inbounds %"class.euf::completion", ptr %this1, i32 0, i32 11
  %2 = load i32, ptr %m_epoch, align 8
  %cmp = icmp eq i32 %1, %2
  br i1 %cmp, label %if.then, label %if.else

if.then:                                          ; preds = %entry
  %m_canonical = getelementptr inbounds %"class.euf::completion", ptr %this1, i32 0, i32 8
  %3 = load ptr, ptr %n.addr, align 8
  %call3 = call noundef i32 @_ZNK3euf5enode6get_idEv(ptr noundef nonnull align 8 dereferenceable(176) %3)
  %call4 = call noundef ptr @_ZNK15ref_vector_coreI4expr19ref_manager_wrapperIS0_11ast_managerEE3getEj(ptr noundef nonnull align 8 dereferenceable(16) %m_canonical, i32 noundef %call3)
  store ptr %call4, ptr %retval, align 8
  br label %return

if.else:                                          ; preds = %entry
  store ptr null, ptr %retval, align 8
  br label %return

return:                                           ; preds = %if.else, %if.then
  %4 = load ptr, ptr %retval, align 8
  ret ptr %4
}