; Function Attrs: mustprogress nofree norecurse nosync nounwind willreturn memory(read, inaccessiblemem: none) uwtable
define hidden noundef ptr @_ZN3euf10completion13get_canonicalEPNS_5enodeE(ptr nocapture noundef nonnull readonly align 8 dereferenceable(701) %this, ptr nocapture noundef readonly %n) local_unnamed_addr #5 align 2 {
entry:
  %m_epochs = getelementptr inbounds i8, ptr %this, i64 672
  %0 = load ptr, ptr %n, align 8
  %1 = load i32, ptr %0, align 4
  %2 = load ptr, ptr %m_epochs, align 8
  %cmp.i.i = icmp eq ptr %2, null
  br i1 %cmp.i.i, label %_ZNK6vectorIjLb0EjE3getEjRKj.exit.thread, label %_ZNK6vectorIjLb0EjE3getEjRKj.exit

_ZNK6vectorIjLb0EjE3getEjRKj.exit.thread:         ; preds = %entry
  %idxprom.i5 = zext i32 %1 to i64
  br label %_ZNK6vectorIjLb0EjE3getEjRKj.exit.cont

_ZNK6vectorIjLb0EjE3getEjRKj.exit:                ; preds = %entry
  %arrayidx.i.i = getelementptr inbounds i8, ptr %2, i64 -4
  %3 = load i32, ptr %arrayidx.i.i, align 4
  %cmp.not.i = icmp ugt i32 %3, %1
  %idxprom.i = zext i32 %1 to i64
  br i1 %cmp.not.i, label %_ZNK6vectorIjLb0EjE3getEjRKj.exit.then, label %_ZNK6vectorIjLb0EjE3getEjRKj.exit.cont

_ZNK6vectorIjLb0EjE3getEjRKj.exit.then:           ; preds = %_ZNK6vectorIjLb0EjE3getEjRKj.exit
  %arrayidx.i = getelementptr inbounds i32, ptr %2, i64 %idxprom.i
  %.then.val = load i32, ptr %arrayidx.i, align 4
  br label %_ZNK6vectorIjLb0EjE3getEjRKj.exit.cont

_ZNK6vectorIjLb0EjE3getEjRKj.exit.cont:           ; preds = %_ZNK6vectorIjLb0EjE3getEjRKj.exit.thread, %_ZNK6vectorIjLb0EjE3getEjRKj.exit, %_ZNK6vectorIjLb0EjE3getEjRKj.exit.then
  %idxprom.i7 = phi i64 [ %idxprom.i, %_ZNK6vectorIjLb0EjE3getEjRKj.exit.then ], [ %idxprom.i, %_ZNK6vectorIjLb0EjE3getEjRKj.exit ], [ %idxprom.i5, %_ZNK6vectorIjLb0EjE3getEjRKj.exit.thread ]
  %4 = phi i32 [ %.then.val, %_ZNK6vectorIjLb0EjE3getEjRKj.exit.then ], [ 0, %_ZNK6vectorIjLb0EjE3getEjRKj.exit ], [ 0, %_ZNK6vectorIjLb0EjE3getEjRKj.exit.thread ]
  %m_epoch = getelementptr inbounds i8, ptr %this, i64 664
  %5 = load i32, ptr %m_epoch, align 8
  %cmp = icmp eq i32 %4, %5
  br i1 %cmp, label %if.then, label %return

if.then:                                          ; preds = %_ZNK6vectorIjLb0EjE3getEjRKj.exit.cont
  %m_nodes.i = getelementptr inbounds i8, ptr %this, i64 624
  %6 = load ptr, ptr %m_nodes.i, align 8
  %arrayidx.i.i2 = getelementptr inbounds ptr, ptr %6, i64 %idxprom.i7
  %7 = load ptr, ptr %arrayidx.i.i2, align 8
  br label %return

return:                                           ; preds = %_ZNK6vectorIjLb0EjE3getEjRKj.exit.cont, %if.then
  %retval.0 = phi ptr [ %7, %if.then ], [ null, %_ZNK6vectorIjLb0EjE3getEjRKj.exit.cont ]
  ret ptr %retval.0
}